; Function Attrs: mustprogress uwtable
define noundef double @_ZNK8QuantLib21AnalyticBarrierEngine1EEd(ptr noundef nonnull align 8 dereferenceable(440) %this, double noundef %eta) local_unnamed_addr #8 align 2 {
entry:
  %rebate.i = getelementptr inbounds nuw i8, ptr %this, i64 168
  %0 = load double, ptr %rebate.i, align 8, !tbaa !107
  %cmp = fcmp ogt double %0, 0.000000e+00
  br i1 %cmp, label %if.then, label %return

if.then:                                          ; preds = %entry
  %barrier.i = getelementptr inbounds nuw i8, ptr %this, i64 160
  %1 = load double, ptr %barrier.i, align 8, !tbaa !103
  %process_.i = getelementptr inbounds nuw i8, ptr %this, i64 360
  %2 = load ptr, ptr %process_.i, align 8, !tbaa !39
  %cmp.not.i.i = icmp eq ptr %2, null
  br i1 %cmp.not.i.i, label %cond.false.i.i, label %_ZNK8QuantLib21AnalyticBarrierEngine10underlyingEv.exit, !prof !71

cond.false.i.i:                                   ; preds = %if.then
  tail call void @_ZN5boost16assertion_failedEPKcS1_S1_l(ptr noundef nonnull @.str.19, ptr noundef nonnull @__PRETTY_FUNCTION__._ZNK5boost10shared_ptrIN8QuantLib30GeneralizedBlackScholesProcessEEptEv, ptr noundef nonnull @.str.20, i64 noundef 784)
  %.pre.i.i = load ptr, ptr %process_.i, align 8, !tbaa !39
  br label %_ZNK8QuantLib21AnalyticBarrierEngine10underlyingEv.exit

_ZNK8QuantLib21AnalyticBarrierEngine10underlyingEv.exit: ; preds = %if.then, %cond.false.i.i
  %3 = phi ptr [ %2, %if.then ], [ %.pre.i.i, %cond.false.i.i ]
  %vtable.i = load ptr, ptr %3, align 8, !tbaa !35
  %vfn.i = getelementptr inbounds i8, ptr %vtable.i, i64 120
  %4 = load ptr, ptr %vfn.i, align 8
  %call2.i = tail call noundef double %4(ptr noundef nonnull align 8 dereferenceable(250) %3)
  %div = fdiv double %1, %call2.i
  %call.i = tail call noundef double @_ZNK8QuantLib21AnalyticBarrierEngine10volatilityEv(ptr noundef nonnull readonly align 8 dereferenceable(440) %this)
  %call2.i3 = tail call noundef double @_ZNK8QuantLib21AnalyticBarrierEngine12riskFreeRateEv(ptr noundef nonnull readonly align 8 dereferenceable(440) %this)
  %call3.i = tail call noundef double @_ZNK8QuantLib21AnalyticBarrierEngine13dividendYieldEv(ptr noundef nonnull readonly align 8 dereferenceable(440) %this)
  %sub.i = fsub double %call2.i3, %call3.i
  %mul.i = fmul double %call.i, %call.i
  %div.i = fdiv double %sub.i, %mul.i
  %sub4.i = fadd double %div.i, -5.000000e-01
  %mul = fmul double %sub4.i, 2.000000e+00
  %call5 = tail call double @pow(double noundef %div, double noundef %mul) #27, !tbaa !105
  %5 = load ptr, ptr %process_.i, align 8, !tbaa !39
  %cmp.not.i.i5 = icmp eq ptr %5, null
  br i1 %cmp.not.i.i5, label %cond.false.i.i9, label %_ZNK8QuantLib21AnalyticBarrierEngine10underlyingEv.exit11, !prof !71

cond.false.i.i9:                                  ; preds = %_ZNK8QuantLib21AnalyticBarrierEngine10underlyingEv.exit
  tail call void @_ZN5boost16assertion_failedEPKcS1_S1_l(ptr noundef nonnull @.str.19, ptr noundef nonnull @__PRETTY_FUNCTION__._ZNK5boost10shared_ptrIN8QuantLib30GeneralizedBlackScholesProcessEEptEv, ptr noundef nonnull @.str.20, i64 noundef 784)
  %.pre.i.i10 = load ptr, ptr %process_.i, align 8, !tbaa !39
  br label %_ZNK8QuantLib21AnalyticBarrierEngine10underlyingEv.exit11

_ZNK8QuantLib21AnalyticBarrierEngine10underlyingEv.exit11: ; preds = %_ZNK8QuantLib21AnalyticBarrierEngine10underlyingEv.exit, %cond.false.i.i9
  %6 = phi ptr [ %5, %_ZNK8QuantLib21AnalyticBarrierEngine10underlyingEv.exit ], [ %.pre.i.i10, %cond.false.i.i9 ]
  %vtable.i6 = load ptr, ptr %6, align 8, !tbaa !35
  %vfn.i7 = getelementptr inbounds i8, ptr %vtable.i6, i64 120
  %7 = load ptr, ptr %vfn.i7, align 8
  %call2.i8 = tail call noundef double %7(ptr noundef nonnull align 8 dereferenceable(250) %6)
  %8 = load double, ptr %barrier.i, align 8, !tbaa !103
  %div8 = fdiv double %call2.i8, %8
  %call9 = tail call double @log(double noundef %div8) #27, !tbaa !105
  %call10 = tail call noundef double @_ZNK8QuantLib21AnalyticBarrierEngine12stdDeviationEv(ptr noundef nonnull align 8 dereferenceable(440) %this)
  %div11 = fdiv double %call9, %call10
  %call.i.i = tail call noundef double @_ZNK8QuantLib21AnalyticBarrierEngine10volatilityEv(ptr noundef nonnull readonly align 8 dereferenceable(440) %this)
  %call2.i.i = tail call noundef double @_ZNK8QuantLib21AnalyticBarrierEngine12riskFreeRateEv(ptr noundef nonnull readonly align 8 dereferenceable(440) %this)
  %call3.i.i = tail call noundef double @_ZNK8QuantLib21AnalyticBarrierEngine13dividendYieldEv(ptr noundef nonnull readonly align 8 dereferenceable(440) %this)
  %sub.i.i = fsub double %call2.i.i, %call3.i.i
  %mul.i.i = fmul double %call.i.i, %call.i.i
  %div.i.i = fdiv double %sub.i.i, %mul.i.i
  %sub4.i.i = fadd double %div.i.i, -5.000000e-01
  %add.i = fadd double %sub4.i.i, 1.000000e+00
  %call2.i13 = tail call noundef double @_ZNK8QuantLib21AnalyticBarrierEngine12stdDeviationEv(ptr noundef nonnull readonly align 8 dereferenceable(440) %this)
  %mul.i14 = fmul double %call2.i13, %add.i
  %add = fadd double %div11, %mul.i14
  %9 = load double, ptr %barrier.i, align 8, !tbaa !103
  %10 = load ptr, ptr %process_.i, align 8, !tbaa !39
  %cmp.not.i.i17 = icmp eq ptr %10, null
  br i1 %cmp.not.i.i17, label %cond.false.i.i21, label %_ZNK8QuantLib21AnalyticBarrierEngine10underlyingEv.exit23, !prof !71

cond.false.i.i21:                                 ; preds = %_ZNK8QuantLib21AnalyticBarrierEngine10underlyingEv.exit11
  tail call void @_ZN5boost16assertion_failedEPKcS1_S1_l(ptr noundef nonnull @.str.19, ptr noundef nonnull @__PRETTY_FUNCTION__._ZNK5boost10shared_ptrIN8QuantLib30GeneralizedBlackScholesProcessEEptEv, ptr noundef nonnull @.str.20, i64 noundef 784)
  %.pre.i.i22 = load ptr, ptr %process_.i, align 8, !tbaa !39
  br label %_ZNK8QuantLib21AnalyticBarrierEngine10underlyingEv.exit23

_ZNK8QuantLib21AnalyticBarrierEngine10underlyingEv.exit23: ; preds = %_ZNK8QuantLib21AnalyticBarrierEngine10underlyingEv.exit11, %cond.false.i.i21
  %11 = phi ptr [ %10, %_ZNK8QuantLib21AnalyticBarrierEngine10underlyingEv.exit11 ], [ %.pre.i.i22, %cond.false.i.i21 ]
  %vtable.i18 = load ptr, ptr %11, align 8, !tbaa !35
  %vfn.i19 = getelementptr inbounds i8, ptr %vtable.i18, i64 120
  %12 = load ptr, ptr %vfn.i19, align 8
  %call2.i20 = tail call noundef double %12(ptr noundef nonnull align 8 dereferenceable(250) %11)
  %div15 = fdiv double %9, %call2.i20
  %call16 = tail call double @log(double noundef %div15) #27, !tbaa !105
  %call17 = tail call noundef double @_ZNK8QuantLib21AnalyticBarrierEngine12stdDeviationEv(ptr noundef nonnull align 8 dereferenceable(440) %this)
  %div18 = fdiv double %call16, %call17
  %call.i.i24 = tail call noundef double @_ZNK8QuantLib21AnalyticBarrierEngine10volatilityEv(ptr noundef nonnull readonly align 8 dereferenceable(440) %this)
  %call2.i.i25 = tail call noundef double @_ZNK8QuantLib21AnalyticBarrierEngine12riskFreeRateEv(ptr noundef nonnull readonly align 8 dereferenceable(440) %this)
  %call3.i.i26 = tail call noundef double @_ZNK8QuantLib21AnalyticBarrierEngine13dividendYieldEv(ptr noundef nonnull readonly align 8 dereferenceable(440) %this)
  %sub.i.i27 = fsub double %call2.i.i25, %call3.i.i26
  %mul.i.i28 = fmul double %call.i.i24, %call.i.i24
  %div.i.i29 = fdiv double %sub.i.i27, %mul.i.i28
  %sub4.i.i30 = fadd double %div.i.i29, -5.000000e-01
  %add.i31 = fadd double %sub4.i.i30, 1.000000e+00
  %call2.i32 = tail call noundef double @_ZNK8QuantLib21AnalyticBarrierEngine12stdDeviationEv(ptr noundef nonnull readonly align 8 dereferenceable(440) %this)
  %mul.i33 = fmul double %call2.i32, %add.i31
  %add20 = fadd double %div18, %mul.i33
  %f_ = getelementptr inbounds nuw i8, ptr %this, i64 376
  %call21 = tail call noundef double @_ZNK8QuantLib21AnalyticBarrierEngine12stdDeviationEv(ptr noundef nonnull align 8 dereferenceable(440) %this)
  %sub = fsub double %add, %call21
  %mul22 = fmul double %eta, %sub
  %call23 = tail call noundef double @_ZNK8QuantLib28CumulativeNormalDistributionclEd(ptr noundef nonnull align 8 dereferenceable(57) %f_, double noundef %mul22)
  %call25 = tail call noundef double @_ZNK8QuantLib21AnalyticBarrierEngine12stdDeviationEv(ptr noundef nonnull align 8 dereferenceable(440) %this)
  %sub26 = fsub double %add20, %call25
  %mul27 = fmul double %eta, %sub26
  %call28 = tail call noundef double @_ZNK8QuantLib28CumulativeNormalDistributionclEd(ptr noundef nonnull align 8 dereferenceable(57) %f_, double noundef %mul27)
  %13 = load double, ptr %rebate.i, align 8, !tbaa !107
  %call30 = tail call noundef double @_ZNK8QuantLib21AnalyticBarrierEngine16riskFreeDiscountEv(ptr noundef nonnull align 8 dereferenceable(440) %this)
  %mul31 = fmul double %13, %call30
  %cmp32 = fcmp oeq double %call28, 0.000000e+00
  %mul33 = fmul double %call5, %call28
  %cond = select i1 %cmp32, double 0.000000e+00, double %mul33
  %sub34 = fsub double %call23, %cond
  %mul35 = fmul double %mul31, %sub34
  br label %return

return:                                           ; preds = %entry, %_ZNK8QuantLib21AnalyticBarrierEngine10underlyingEv.exit23
  %retval.0 = phi double [ %mul35, %_ZNK8QuantLib21AnalyticBarrierEngine10underlyingEv.exit23 ], [ 0.000000e+00, %entry ]
  ret double %retval.0
}